; Function Attrs: nounwind uwtable
define ptr @l_Lean_Meta_Grind_CasesTypes_eraseDecl(ptr noundef %0, ptr noundef %1, ptr noundef %2, ptr noundef %3, ptr noundef %4) local_unnamed_addr #1 {
  %6 = ptrtoint ptr %0 to i64
  %7 = and i64 %6, 1
  %.not = icmp eq i64 %7, 0
  br i1 %.not, label %8, label %lean_inc.exit

8:                                                ; preds = %5
  %.val.i = load i32, ptr %0, align 4, !tbaa !4
  %9 = icmp sgt i32 %.val.i, 0
  br i1 %9, label %10, label %12, !prof !11

10:                                               ; preds = %8
  %11 = add nuw i32 %.val.i, 1
  store i32 %11, ptr %0, align 4, !tbaa !4
  br label %lean_inc.exit

12:                                               ; preds = %8
  %.not.i30 = icmp eq i32 %.val.i, 0
  br i1 %.not.i30, label %lean_inc.exit, label %13

13:                                               ; preds = %12
  tail call void @lean_inc_ref_cold(ptr noundef nonnull %0) #6
  br label %lean_inc.exit

lean_inc.exit:                                    ; preds = %13, %12, %10, %5
  %14 = tail call i64 @l_Lean_Name_hash___override(ptr noundef %1) #6
  %15 = tail call zeroext i8 @l_Lean_PersistentHashMap_containsAux___at_Lean_Meta_Grind_CasesTypes_contains___spec__2(ptr noundef %0, i64 noundef %14, ptr noundef %1)
  %16 = icmp eq i8 %15, 0
  br i1 %16, label %17, label %41

17:                                               ; preds = %lean_inc.exit
  br i1 %.not, label %18, label %lean_dec.exit27

18:                                               ; preds = %17
  %19 = load i32, ptr %0, align 4, !tbaa !4
  %20 = icmp sgt i32 %19, 1
  br i1 %20, label %21, label %23, !prof !11

21:                                               ; preds = %18
  %22 = add nsw i32 %19, -1
  store i32 %22, ptr %0, align 4, !tbaa !4
  br label %lean_dec.exit27

23:                                               ; preds = %18
  %.not.i = icmp eq i32 %19, 0
  br i1 %.not.i, label %lean_dec.exit27, label %24

24:                                               ; preds = %23
  tail call void @lean_dec_ref_cold(ptr noundef nonnull %0) #6
  br label %lean_dec.exit27

lean_dec.exit27:                                  ; preds = %24, %23, %21, %17
  %25 = tail call ptr @l_Lean_MessageData_ofName(ptr noundef %1) #6
  %26 = load ptr, ptr @l_Lean_Meta_Grind_CasesTypes_eraseDecl___closed__2, align 8, !tbaa !9
  tail call void @lean_inc_heartbeat() #6
  %27 = tail call noalias ptr @mi_malloc_small(i64 noundef 24) #6
  %28 = icmp eq ptr %27, null
  br i1 %28, label %29, label %lean_alloc_ctor.exit

29:                                               ; preds = %lean_dec.exit27
  tail call void @lean_internal_panic_out_of_memory() #7
  unreachable

lean_alloc_ctor.exit:                             ; preds = %lean_dec.exit27
  %30 = getelementptr inbounds nuw i8, ptr %27, i64 4
  store i32 1, ptr %27, align 4, !tbaa !4
  store i32 117571608, ptr %30, align 4
  %31 = getelementptr inbounds nuw i8, ptr %27, i64 8
  store ptr %26, ptr %31, align 8, !tbaa !9
  %32 = getelementptr inbounds nuw i8, ptr %27, i64 16
  store ptr %25, ptr %32, align 8, !tbaa !9
  %33 = load ptr, ptr @l_Lean_Meta_Grind_CasesTypes_eraseDecl___closed__4, align 8, !tbaa !9
  tail call void @lean_inc_heartbeat() #6
  %34 = tail call noalias ptr @mi_malloc_small(i64 noundef 24) #6
  %35 = icmp eq ptr %34, null
  br i1 %35, label %36, label %lean_alloc_ctor.exit31

36:                                               ; preds = %lean_alloc_ctor.exit
  tail call void @lean_internal_panic_out_of_memory() #7
  unreachable

lean_alloc_ctor.exit31:                           ; preds = %lean_alloc_ctor.exit
  %37 = getelementptr inbounds nuw i8, ptr %34, i64 4
  store i32 1, ptr %34, align 4, !tbaa !4
  store i32 117571608, ptr %37, align 4
  %38 = getelementptr inbounds nuw i8, ptr %34, i64 8
  store ptr %27, ptr %38, align 8, !tbaa !9
  %39 = getelementptr inbounds nuw i8, ptr %34, i64 16
  store ptr %33, ptr %39, align 8, !tbaa !9
  %40 = tail call ptr @l_Lean_throwError___at_Lean_Meta_Grind_CasesTypes_eraseDecl___spec__1(ptr noundef nonnull %34, ptr noundef %2, ptr noundef %3, ptr noundef %4)
  br label %59

41:                                               ; preds = %lean_inc.exit
  %42 = tail call i64 @l_Lean_Name_hash___override(ptr noundef %1) #6
  %43 = tail call ptr @l_Lean_PersistentHashMap_eraseAux___at_Lean_Meta_Grind_CasesTypes_erase___spec__2(ptr noundef %0, i64 noundef %42, ptr noundef %1)
  %44 = ptrtoint ptr %1 to i64
  %45 = and i64 %44, 1
  %.not33 = icmp eq i64 %45, 0
  br i1 %.not33, label %46, label %lean_dec.exit

46:                                               ; preds = %41
  %47 = load i32, ptr %1, align 4, !tbaa !4
  %48 = icmp sgt i32 %47, 1
  br i1 %48, label %49, label %51, !prof !11

49:                                               ; preds = %46
  %50 = add nsw i32 %47, -1
  store i32 %50, ptr %1, align 4, !tbaa !4
  br label %lean_dec.exit

51:                                               ; preds = %46
  %.not.i28 = icmp eq i32 %47, 0
  br i1 %.not.i28, label %lean_dec.exit, label %52

52:                                               ; preds = %51
  tail call void @lean_dec_ref_cold(ptr noundef nonnull %1) #6
  br label %lean_dec.exit

lean_dec.exit:                                    ; preds = %52, %51, %49, %41
  tail call void @lean_inc_heartbeat() #6
  %53 = tail call noalias ptr @mi_malloc_small(i64 noundef 24) #6
  %54 = icmp eq ptr %53, null
  br i1 %54, label %55, label %lean_alloc_ctor.exit32

55:                                               ; preds = %lean_dec.exit
  tail call void @lean_internal_panic_out_of_memory() #7
  unreachable

lean_alloc_ctor.exit32:                           ; preds = %lean_dec.exit
  %56 = getelementptr inbounds nuw i8, ptr %53, i64 4
  store i32 1, ptr %53, align 4, !tbaa !4
  store i32 131096, ptr %56, align 4
  %57 = getelementptr inbounds nuw i8, ptr %53, i64 8
  store ptr %43, ptr %57, align 8, !tbaa !9
  %58 = getelementptr inbounds nuw i8, ptr %53, i64 16
  store ptr %4, ptr %58, align 8, !tbaa !9
  br label %59

59:                                               ; preds = %lean_alloc_ctor.exit32, %lean_alloc_ctor.exit31
  %.0 = phi ptr [ %40, %lean_alloc_ctor.exit31 ], [ %53, %lean_alloc_ctor.exit32 ]
  ret ptr %.0
}